; Function Attrs: mustprogress uwtable
define noundef ptr @_ZN11duckdb_zstd24ZSTD_createCCtx_advancedENS_14ZSTD_customMemE(ptr noundef readonly byval(%"struct.duckdb_zstd::ZSTD_customMem") align 8 captures(none) %0) local_unnamed_addr #2 {
  %2 = load ptr, ptr %0, align 8, !tbaa !59
  %.not = icmp eq ptr %2, null
  %3 = getelementptr inbounds nuw i8, ptr %0, i64 8
  %4 = load ptr, ptr %3, align 8, !tbaa !60
  %.not5 = icmp eq ptr %4, null
  %5 = xor i1 %.not, %.not5
  br i1 %5, label %28, label %6

6:                                                ; preds = %1
  br i1 %.not, label %9, label %7

7:                                                ; preds = %6
  %.sroa.28.0..sroa_idx = getelementptr inbounds nuw i8, ptr %0, i64 16
  %.sroa.28.0.copyload = load ptr, ptr %.sroa.28.0..sroa_idx, align 8, !tbaa !61
  %8 = tail call noundef ptr %2(ptr noundef %.sroa.28.0.copyload, i64 noundef 5248)
  br label %_ZN11duckdb_zstdL17ZSTD_customMallocEmNS_14ZSTD_customMemE.exit

9:                                                ; preds = %6
  %10 = tail call noalias dereferenceable_or_null(5248) ptr @malloc(i64 noundef 5248) #27
  br label %_ZN11duckdb_zstdL17ZSTD_customMallocEmNS_14ZSTD_customMemE.exit

_ZN11duckdb_zstdL17ZSTD_customMallocEmNS_14ZSTD_customMemE.exit: ; preds = %7, %9
  %.0.i = phi ptr [ %8, %7 ], [ %10, %9 ]
  %.not6 = icmp eq ptr %.0.i, null
  br i1 %.not6, label %28, label %11

11:                                               ; preds = %_ZN11duckdb_zstdL17ZSTD_customMallocEmNS_14ZSTD_customMemE.exit
  tail call void @llvm.memset.p0.i64(ptr noundef nonnull align 8 dereferenceable(5248) %.0.i, i8 0, i64 5248, i1 false)
  %12 = getelementptr inbounds nuw i8, ptr %.0.i, i64 872
  call void @llvm.memcpy.p0.p0.i64(ptr noundef nonnull align 8 dereferenceable(24) %12, ptr noundef nonnull align 8 dereferenceable(24) %0, i64 24, i1 false)
  %13 = tail call i32 asm "cpuid", "={ax},{ax},~{ebx},~{ecx},~{edx},~{dirflag},~{fpsr},~{flags}"(i32 0) #26, !srcloc !3
  %.not.i.i.i = icmp eq i32 %13, 0
  br i1 %.not.i.i.i, label %_ZN11duckdb_zstdL13ZSTD_initCCtxEPNS_11ZSTD_CCtx_sENS_14ZSTD_customMemE.exit, label %14

14:                                               ; preds = %11
  %15 = tail call { i32, i32, i32 } asm "cpuid", "={ax},={cx},={dx},{ax},~{ebx},~{dirflag},~{fpsr},~{flags}"(i32 1) #26, !srcloc !4
  %16 = icmp ugt i32 %13, 6
  br i1 %16, label %_ZN11duckdb_zstdL10ZSTD_cpuidEv.exit.i.i, label %_ZN11duckdb_zstdL13ZSTD_initCCtxEPNS_11ZSTD_CCtx_sENS_14ZSTD_customMemE.exit

_ZN11duckdb_zstdL10ZSTD_cpuidEv.exit.i.i:         ; preds = %14
  %17 = tail call { i32, i32, i32 } asm "cpuid", "={ax},={bx},={cx},{ax},{cx},~{edx},~{dirflag},~{fpsr},~{flags}"(i32 7, i32 0) #26, !srcloc !5
  %18 = extractvalue { i32, i32, i32 } %17, 1
  %19 = and i32 %18, 8
  %.not.i.i = icmp eq i32 %19, 0
  br i1 %.not.i.i, label %_ZN11duckdb_zstdL13ZSTD_initCCtxEPNS_11ZSTD_CCtx_sENS_14ZSTD_customMemE.exit, label %20

20:                                               ; preds = %_ZN11duckdb_zstdL10ZSTD_cpuidEv.exit.i.i
  %21 = lshr i32 %18, 8
  %22 = and i32 %21, 1
  br label %_ZN11duckdb_zstdL13ZSTD_initCCtxEPNS_11ZSTD_CCtx_sENS_14ZSTD_customMemE.exit

_ZN11duckdb_zstdL13ZSTD_initCCtxEPNS_11ZSTD_CCtx_sENS_14ZSTD_customMemE.exit: ; preds = %11, %14, %_ZN11duckdb_zstdL10ZSTD_cpuidEv.exit.i.i, %20
  %23 = phi i32 [ 0, %_ZN11duckdb_zstdL10ZSTD_cpuidEv.exit.i.i ], [ %22, %20 ], [ 0, %14 ], [ 0, %11 ]
  %24 = getelementptr inbounds nuw i8, ptr %.0.i, i64 8
  store i32 %23, ptr %24, align 8, !tbaa !6
  tail call fastcc void @_ZN11duckdb_zstdL18ZSTD_clearAllDictsEPNS_11ZSTD_CCtx_sE(ptr noundef nonnull %.0.i)
  %25 = getelementptr inbounds nuw i8, ptr %.0.i, i64 16
  tail call void @llvm.memset.p0.i64(ptr noundef nonnull align 8 dereferenceable(216) %25, i8 0, i64 216, i1 false)
  %26 = getelementptr inbounds nuw i8, ptr %.0.i, i64 60
  store i32 3, ptr %26, align 4, !tbaa !57
  %27 = getelementptr inbounds nuw i8, ptr %.0.i, i64 48
  store i32 1, ptr %27, align 8, !tbaa !58
  br label %28

28:                                               ; preds = %_ZN11duckdb_zstdL13ZSTD_initCCtxEPNS_11ZSTD_CCtx_sENS_14ZSTD_customMemE.exit, %_ZN11duckdb_zstdL17ZSTD_customMallocEmNS_14ZSTD_customMemE.exit, %1
  %.0 = phi ptr [ null, %1 ], [ %.0.i, %_ZN11duckdb_zstdL13ZSTD_initCCtxEPNS_11ZSTD_CCtx_sENS_14ZSTD_customMemE.exit ], [ null, %_ZN11duckdb_zstdL17ZSTD_customMallocEmNS_14ZSTD_customMemE.exit ]
  ret ptr %.0
}